target datalayout = "e-m:e-p270:32:32-p271:32:32-p272:64:64-i64:64-i128:128-f80:128-n8:16:32:64-S128"
target triple = "x86_64-pc-linux-gnu"

%struct.HeapTupleData = type { i32, %struct.ItemPointerData, i32, ptr }
%struct.ItemPointerData = type { %struct.BlockIdData, i16 }
%struct.BlockIdData = type { i16, i16 }
%struct.HeapTupleHeaderData = type { %union.anon, %struct.ItemPointerData, i16, i16, i8, [0 x i8] }
%union.anon = type { %struct.HeapTupleFields }
%struct.HeapTupleFields = type { i32, i32, %union.anon.1 }
%union.anon.1 = type { i32 }

@.str = private unnamed_addr constant [19 x i8] c"invalid attnum: %d\00", align 1
@.str.1 = private unnamed_addr constant [12 x i8] c"heaptuple.c\00", align 1
@__func__.heap_getsysattr = private unnamed_addr constant [16 x i8] c"heap_getsysattr\00", align 1

; Function Attrs: inlinehint nounwind uwtable
define internal i64 @ObjectIdGetDatum(i32 noundef %0) #2 {
  %2 = alloca i32, align 4
  store i32 %0, ptr %2, align 4
  %3 = load i32, ptr %2, align 4
  %4 = zext i32 %3 to i64
  ret i64 %4
}

; Function Attrs: inlinehint nounwind uwtable
define internal i64 @CommandIdGetDatum(i32 noundef %0) #2 {
  %2 = alloca i32, align 4
  store i32 %0, ptr %2, align 4
  %3 = load i32, ptr %2, align 4
  %4 = zext i32 %3 to i64
  ret i64 %4
}

; Function Attrs: inlinehint nounwind uwtable
define internal i32 @HeapTupleHeaderGetRawCommandId(ptr noundef %0) #2 {
  %2 = alloca ptr, align 8
  store ptr %0, ptr %2, align 8
  %3 = load ptr, ptr %2, align 8
  %4 = getelementptr inbounds nuw %struct.HeapTupleHeaderData, ptr %3, i32 0, i32 0
  %5 = getelementptr inbounds nuw %struct.HeapTupleFields, ptr %4, i32 0, i32 2
  %6 = load i32, ptr %5, align 4
  ret i32 %6
}

; Function Attrs: inlinehint nounwind uwtable
define internal i32 @HeapTupleHeaderGetRawXmax(ptr noundef %0) #2 {
  %2 = alloca ptr, align 8
  store ptr %0, ptr %2, align 8
  %3 = load ptr, ptr %2, align 8
  %4 = getelementptr inbounds nuw %struct.HeapTupleHeaderData, ptr %3, i32 0, i32 0
  %5 = getelementptr inbounds nuw %struct.HeapTupleFields, ptr %4, i32 0, i32 1
  %6 = load i32, ptr %5, align 4
  ret i32 %6
}

; Function Attrs: inlinehint nounwind uwtable
define internal i64 @TransactionIdGetDatum(i32 noundef %0) #2 {
  %2 = alloca i32, align 4
  store i32 %0, ptr %2, align 4
  %3 = load i32, ptr %2, align 4
  %4 = zext i32 %3 to i64
  ret i64 %4
}

; Function Attrs: inlinehint nounwind uwtable
define internal i32 @HeapTupleHeaderGetRawXmin(ptr noundef %0) #2 {
  %2 = alloca ptr, align 8
  store ptr %0, ptr %2, align 8
  %3 = load ptr, ptr %2, align 8
  %4 = getelementptr inbounds nuw %struct.HeapTupleHeaderData, ptr %3, i32 0, i32 0
  %5 = getelementptr inbounds nuw %struct.HeapTupleFields, ptr %4, i32 0, i32 0
  %6 = load i32, ptr %5, align 4
  ret i32 %6
}

; Function Attrs: inlinehint nounwind uwtable
define internal i64 @PointerGetDatum(ptr noundef %0) #2 {
  %2 = alloca ptr, align 8
  store ptr %0, ptr %2, align 8
  %3 = load ptr, ptr %2, align 8
  %4 = ptrtoint ptr %3 to i64
  ret i64 %4
}

; Function Attrs: nounwind uwtable
define dso_local i64 @heap_getsysattr(ptr noundef %0, i32 noundef %1, ptr noundef %2, ptr noundef %3) #0 {
  %5 = alloca ptr, align 8
  %6 = alloca i32, align 4
  %7 = alloca ptr, align 8
  %8 = alloca ptr, align 8
  %9 = alloca i64, align 8
  store ptr %0, ptr %5, align 8
  store i32 %1, ptr %6, align 4
  store ptr %2, ptr %7, align 8
  store ptr %3, ptr %8, align 8
  call void @llvm.lifetime.start.p0(i64 8, ptr %9) #8
  %10 = load ptr, ptr %8, align 8
  store i8 0, ptr %10, align 1
  %11 = load i32, ptr %6, align 4
  switch i32 %11, label %39 [
    i32 -1, label %12
    i32 -2, label %16
    i32 -4, label %22
    i32 -3, label %28
    i32 -5, label %28
    i32 -6, label %34
  ]

12:                                               ; preds = %4
  %13 = load ptr, ptr %5, align 8
  %14 = getelementptr inbounds nuw %struct.HeapTupleData, ptr %13, i32 0, i32 1
  %15 = call i64 @PointerGetDatum(ptr noundef %14)
  store i64 %15, ptr %9, align 8
  br label %51

16:                                               ; preds = %4
  %17 = load ptr, ptr %5, align 8
  %18 = getelementptr inbounds nuw %struct.HeapTupleData, ptr %17, i32 0, i32 3
  %19 = load ptr, ptr %18, align 8
  %20 = call i32 @HeapTupleHeaderGetRawXmin(ptr noundef %19)
  %21 = call i64 @TransactionIdGetDatum(i32 noundef %20)
  store i64 %21, ptr %9, align 8
  br label %51

22:                                               ; preds = %4
  %23 = load ptr, ptr %5, align 8
  %24 = getelementptr inbounds nuw %struct.HeapTupleData, ptr %23, i32 0, i32 3
  %25 = load ptr, ptr %24, align 8
  %26 = call i32 @HeapTupleHeaderGetRawXmax(ptr noundef %25)
  %27 = call i64 @TransactionIdGetDatum(i32 noundef %26)
  store i64 %27, ptr %9, align 8
  br label %51

28:                                               ; preds = %4, %4
  %29 = load ptr, ptr %5, align 8
  %30 = getelementptr inbounds nuw %struct.HeapTupleData, ptr %29, i32 0, i32 3
  %31 = load ptr, ptr %30, align 8
  %32 = call i32 @HeapTupleHeaderGetRawCommandId(ptr noundef %31)
  %33 = call i64 @CommandIdGetDatum(i32 noundef %32)
  store i64 %33, ptr %9, align 8
  br label %51

34:                                               ; preds = %4
  %35 = load ptr, ptr %5, align 8
  %36 = getelementptr inbounds nuw %struct.HeapTupleData, ptr %35, i32 0, i32 2
  %37 = load i32, ptr %36, align 4
  %38 = call i64 @ObjectIdGetDatum(i32 noundef %37)
  store i64 %38, ptr %9, align 8
  br label %51

39:                                               ; preds = %4
  br label %40

40:                                               ; preds = %39
  br i1 true, label %41, label %43

41:                                               ; preds = %40
  %42 = call zeroext i1 @errstart_cold(i32 noundef 21, ptr noundef null) #10
  br i1 %42, label %45, label %48

43:                                               ; preds = %40
  %44 = call zeroext i1 @errstart(i32 noundef 21, ptr noundef null)
  br i1 %44, label %45, label %48

45:                                               ; preds = %43, %41
  %46 = load i32, ptr %6, align 4
  %47 = call i32 (ptr, ...) @errmsg_internal(ptr noundef @.str, i32 noundef %46)
  call void @errfinish(ptr noundef @.str.1, i32 noundef 761, ptr noundef @__func__.heap_getsysattr)
  br label %48

48:                                               ; preds = %45, %43, %41
  unreachable

49:                                               ; No predecessors!
  br label %50

50:                                               ; preds = %49
  store i64 0, ptr %9, align 8
  br label %51

51:                                               ; preds = %50, %34, %28, %22, %16, %12
  %52 = load i64, ptr %9, align 8
  call void @llvm.lifetime.end.p0(i64 8, ptr %9) #8
  ret i64 %52
}