; Function Attrs: nounwind uwtable
define dso_local i64 @heap_getsysattr(ptr noundef %0, i32 noundef %1, ptr noundef readnone captures(none) %2, ptr noundef writeonly captures(none) initializes((0, 1)) %3) local_unnamed_addr #0 {
  store i8 0, ptr %3, align 1
  switch i32 %1, label %26 [
    i32 -1, label %5
    i32 -2, label %8
    i32 -4, label %12
    i32 -3, label %17
    i32 -5, label %17
    i32 -6, label %22
  ]

5:                                                ; preds = %4
  %6 = getelementptr inbounds nuw i8, ptr %0, i64 4
  %7 = ptrtoint ptr %6 to i64
  br label %29

8:                                                ; preds = %4
  %9 = getelementptr inbounds nuw i8, ptr %0, i64 16
  %10 = load ptr, ptr %9, align 8
  %.val = load i32, ptr %10, align 4
  %11 = zext i32 %.val to i64
  br label %29

12:                                               ; preds = %4
  %13 = getelementptr inbounds nuw i8, ptr %0, i64 16
  %14 = load ptr, ptr %13, align 8
  %15 = getelementptr i8, ptr %14, i64 4
  %.val8 = load i32, ptr %15, align 4
  %16 = zext i32 %.val8 to i64
  br label %29

17:                                               ; preds = %4, %4
  %18 = getelementptr inbounds nuw i8, ptr %0, i64 16
  %19 = load ptr, ptr %18, align 8
  %20 = getelementptr i8, ptr %19, i64 8
  %.val9 = load i32, ptr %20, align 4
  %21 = zext i32 %.val9 to i64
  br label %29

22:                                               ; preds = %4
  %23 = getelementptr inbounds nuw i8, ptr %0, i64 12
  %24 = load i32, ptr %23, align 4
  %25 = zext i32 %24 to i64
  br label %29

26:                                               ; preds = %4
  %27 = tail call zeroext i1 @errstart_cold(i32 noundef 21, ptr noundef null) #14
  tail call void @llvm.assume(i1 %27)
  %28 = tail call i32 (ptr, ...) @errmsg_internal(ptr noundef nonnull @.str, i32 noundef %1) #12
  tail call void @errfinish(ptr noundef nonnull @.str.1, i32 noundef 761, ptr noundef nonnull @__func__.heap_getsysattr) #12
  unreachable

29:                                               ; preds = %22, %17, %12, %8, %5
  %.0 = phi i64 [ %25, %22 ], [ %21, %17 ], [ %16, %12 ], [ %11, %8 ], [ %7, %5 ]
  ret i64 %.0
}